target datalayout = "e-m:e-p270:32:32-p271:32:32-p272:64:64-i64:64-i128:128-f80:128-n8:16:32:64-S128"
target triple = "x86_64-pc-linux-gnu"

%class.Metadata = type { ptr }
%class.OopHandle = type { ptr }
%class.AccessFlags = type { i32 }
%class.LayoutRawBlock = type <{ ptr, ptr, i32, i32, i32, i32, i32, i8, [3 x i8] }>
%class.FieldLayout = type { ptr, ptr, ptr, ptr, ptr }
%class.InstanceKlass = type { %class.Klass.base, ptr, ptr, ptr, ptr, ptr, ptr, ptr, ptr, ptr, ptr, i32, i32, i32, i32, i16, i16, i16, i16, i8, i8, i8, i8, %class.InstanceKlassFlags, ptr, ptr, ptr, ptr, ptr, i64, ptr, ptr, ptr, ptr, ptr, ptr, ptr, ptr, ptr, ptr, ptr, ptr, ptr }
%class.Klass.base = type <{ %class.Metadata, i32, i32, i32, i32, ptr, ptr, ptr, [8 x ptr], %class.OopHandle, ptr, ptr, ptr, ptr, ptr, i32, %class.AccessFlags, i64, i64, i8, i8, i16, i16, [2 x i8], i32 }>
%class.InstanceKlassFlags = type <{ i16, i8, i8 }>
%class.anon = type { i8 }
%class.oopDesc = type { %class.markWord, %"union.oopDesc::_metadata" }
%class.markWord = type { i64 }
%"union.oopDesc::_metadata" = type { ptr }

@UseCompressedClassPointers = external global i8, align 1
@_ZN14LayoutRawBlockC1ENS_4KindEi = hidden unnamed_addr alias void (ptr, i32, i32), ptr @_ZN14LayoutRawBlockC2ENS_4KindEi

; Function Attrs: mustprogress nounwind uwtable
define linkonce_odr hidden noundef i64 @_ZZN7oopDesc21klass_offset_in_bytesEvENKUlvE_clEv(ptr noundef nonnull align 1 dereferenceable(1) %0) #1 comdat align 2 {
  %2 = alloca ptr, align 8
  %3 = alloca [16 x i8], align 16
  %4 = alloca ptr, align 8
  %5 = alloca ptr, align 8
  store ptr %0, ptr %2, align 8
  %6 = getelementptr inbounds [16 x i8], ptr %3, i64 0, i64 0
  store ptr %6, ptr %4, align 8
  %7 = load ptr, ptr %4, align 8
  %8 = getelementptr inbounds %class.oopDesc, ptr %7, i32 0, i32 1
  store ptr %8, ptr %5, align 8
  %9 = load ptr, ptr %5, align 8
  %10 = getelementptr inbounds [16 x i8], ptr %3, i64 0, i64 0
  %11 = ptrtoint ptr %9 to i64
  %12 = ptrtoint ptr %10 to i64
  %13 = sub i64 %11, %12
  ret i64 %13
}

; Function Attrs: mustprogress nounwind uwtable
define linkonce_odr hidden noundef i32 @_ZN7oopDesc21klass_offset_in_bytesEv() #1 comdat align 2 {
  %1 = alloca %class.anon, align 1
  %2 = call noundef i64 @_ZZN7oopDesc21klass_offset_in_bytesEvENKUlvE_clEv(ptr noundef nonnull align 1 dereferenceable(1) %1)
  %3 = trunc i64 %2 to i32
  ret i32 %3
}

; Function Attrs: mustprogress nounwind uwtable
define linkonce_odr hidden noundef zeroext i1 @_ZNK18InstanceKlassFlags25has_contended_annotationsEv(ptr noundef nonnull align 2 dereferenceable(3) %0) #1 comdat align 2 {
  %2 = alloca ptr, align 8
  store ptr %0, ptr %2, align 8
  %3 = load ptr, ptr %2, align 8
  %4 = getelementptr inbounds %class.InstanceKlassFlags, ptr %3, i32 0, i32 0
  %5 = load i16, ptr %4, align 2
  %6 = zext i16 %5 to i32
  %7 = and i32 %6, 1024
  %8 = icmp ne i32 %7, 0
  ret i1 %8
}

; Function Attrs: mustprogress nounwind uwtable
define linkonce_odr hidden void @_ZN14LayoutRawBlock14set_next_blockEPS_(ptr noundef nonnull align 8 dereferenceable(37) %0, ptr noundef %1) #1 comdat align 2 {
  %3 = alloca ptr, align 8
  %4 = alloca ptr, align 8
  store ptr %0, ptr %3, align 8
  store ptr %1, ptr %4, align 8
  %5 = load ptr, ptr %3, align 8
  %6 = load ptr, ptr %4, align 8
  %7 = getelementptr inbounds %class.LayoutRawBlock, ptr %5, i32 0, i32 0
  store ptr %6, ptr %7, align 8
  ret void
}

; Function Attrs: mustprogress nounwind uwtable
define linkonce_odr hidden void @_ZN14LayoutRawBlock14set_prev_blockEPS_(ptr noundef nonnull align 8 dereferenceable(37) %0, ptr noundef %1) #1 comdat align 2 {
  %3 = alloca ptr, align 8
  %4 = alloca ptr, align 8
  store ptr %0, ptr %3, align 8
  store ptr %1, ptr %4, align 8
  %5 = load ptr, ptr %3, align 8
  %6 = load ptr, ptr %4, align 8
  %7 = getelementptr inbounds %class.LayoutRawBlock, ptr %5, i32 0, i32 1
  store ptr %6, ptr %7, align 8
  ret void
}

; Function Attrs: mustprogress nounwind uwtable
define linkonce_odr hidden noundef ptr @_ZNK14LayoutRawBlock10prev_blockEv(ptr noundef nonnull align 8 dereferenceable(37) %0) #1 comdat align 2 {
  %2 = alloca ptr, align 8
  store ptr %0, ptr %2, align 8
  %3 = load ptr, ptr %2, align 8
  %4 = getelementptr inbounds %class.LayoutRawBlock, ptr %3, i32 0, i32 1
  %5 = load ptr, ptr %4, align 8
  ret ptr %5
}

; Function Attrs: mustprogress nounwind uwtable
define linkonce_odr hidden void @_ZN14LayoutRawBlock8set_sizeEi(ptr noundef nonnull align 8 dereferenceable(37) %0, i32 noundef %1) #1 comdat align 2 {
  %3 = alloca ptr, align 8
  %4 = alloca i32, align 4
  store ptr %0, ptr %3, align 8
  store i32 %1, ptr %4, align 4
  %5 = load ptr, ptr %3, align 8
  %6 = load i32, ptr %4, align 4
  %7 = getelementptr inbounds %class.LayoutRawBlock, ptr %5, i32 0, i32 5
  store i32 %6, ptr %7, align 4
  ret void
}

; Function Attrs: mustprogress nounwind uwtable
define linkonce_odr hidden noundef i32 @_ZNK14LayoutRawBlock4sizeEv(ptr noundef nonnull align 8 dereferenceable(37) %0) #1 comdat align 2 {
  %2 = alloca ptr, align 8
  store ptr %0, ptr %2, align 8
  %3 = load ptr, ptr %2, align 8
  %4 = getelementptr inbounds %class.LayoutRawBlock, ptr %3, i32 0, i32 5
  %5 = load i32, ptr %4, align 4
  ret i32 %5
}

; Function Attrs: mustprogress nounwind uwtable
define linkonce_odr hidden noundef i32 @_ZNK14LayoutRawBlock6offsetEv(ptr noundef nonnull align 8 dereferenceable(37) %0) #1 comdat align 2 {
  %2 = alloca ptr, align 8
  store ptr %0, ptr %2, align 8
  %3 = load ptr, ptr %2, align 8
  %4 = getelementptr inbounds %class.LayoutRawBlock, ptr %3, i32 0, i32 3
  %5 = load i32, ptr %4, align 4
  ret i32 %5
}

; Function Attrs: mustprogress nounwind uwtable
define linkonce_odr hidden noundef i32 @_ZN7oopDesc25klass_gap_offset_in_bytesEv() #1 comdat align 2 {
  %1 = call noundef i32 @_ZN7oopDesc21klass_offset_in_bytesEv()
  %2 = sext i32 %1 to i64
  %3 = add i64 %2, 4
  %4 = trunc i64 %3 to i32
  ret i32 %4
}

; Function Attrs: mustprogress nounwind uwtable
define linkonce_odr hidden noundef ptr @_ZNK14LayoutRawBlock10next_blockEv(ptr noundef nonnull align 8 dereferenceable(37) %0) #1 comdat align 2 {
  %2 = alloca ptr, align 8
  store ptr %0, ptr %2, align 8
  %3 = load ptr, ptr %2, align 8
  %4 = getelementptr inbounds %class.LayoutRawBlock, ptr %3, i32 0, i32 0
  %5 = load ptr, ptr %4, align 8
  ret ptr %5
}

; Function Attrs: mustprogress nounwind uwtable
define linkonce_odr hidden noundef i32 @_ZNK14LayoutRawBlock4kindEv(ptr noundef nonnull align 8 dereferenceable(37) %0) #1 comdat align 2 {
  %2 = alloca ptr, align 8
  store ptr %0, ptr %2, align 8
  %3 = load ptr, ptr %2, align 8
  %4 = getelementptr inbounds %class.LayoutRawBlock, ptr %3, i32 0, i32 2
  %5 = load i32, ptr %4, align 8
  ret i32 %5
}

; Function Attrs: mustprogress nounwind uwtable
define linkonce_odr hidden noundef zeroext i1 @_ZNK13InstanceKlass25has_contended_annotationsEv(ptr noundef nonnull align 8 dereferenceable(464) %0) #1 comdat align 2 {
  %2 = alloca ptr, align 8
  store ptr %0, ptr %2, align 8
  %3 = load ptr, ptr %2, align 8
  %4 = getelementptr inbounds %class.InstanceKlass, ptr %3, i32 0, i32 23
  %5 = call noundef zeroext i1 @_ZNK18InstanceKlassFlags25has_contended_annotationsEv(ptr noundef nonnull align 2 dereferenceable(3) %4)
  ret i1 %5
}

; Function Attrs: mustprogress nounwind uwtable
define hidden noundef ptr @_ZN11FieldLayout6insertEP14LayoutRawBlockS1_(ptr noundef nonnull align 8 dereferenceable(40) %0, ptr noundef %1, ptr noundef %2) #1 align 2 {
  %4 = alloca ptr, align 8
  %5 = alloca ptr, align 8
  %6 = alloca ptr, align 8
  store ptr %0, ptr %4, align 8
  store ptr %1, ptr %5, align 8
  store ptr %2, ptr %6, align 8
  %7 = load ptr, ptr %4, align 8
  %8 = load ptr, ptr %6, align 8
  %9 = load ptr, ptr %5, align 8
  %10 = call noundef i32 @_ZNK14LayoutRawBlock6offsetEv(ptr noundef nonnull align 8 dereferenceable(37) %9)
  call void @_ZN14LayoutRawBlock10set_offsetEi(ptr noundef nonnull align 8 dereferenceable(37) %8, i32 noundef %10)
  %11 = load ptr, ptr %5, align 8
  %12 = load ptr, ptr %5, align 8
  %13 = call noundef i32 @_ZNK14LayoutRawBlock6offsetEv(ptr noundef nonnull align 8 dereferenceable(37) %12)
  %14 = load ptr, ptr %6, align 8
  %15 = call noundef i32 @_ZNK14LayoutRawBlock4sizeEv(ptr noundef nonnull align 8 dereferenceable(37) %14)
  %16 = add nsw i32 %13, %15
  call void @_ZN14LayoutRawBlock10set_offsetEi(ptr noundef nonnull align 8 dereferenceable(37) %11, i32 noundef %16)
  %17 = load ptr, ptr %5, align 8
  %18 = load ptr, ptr %5, align 8
  %19 = call noundef i32 @_ZNK14LayoutRawBlock4sizeEv(ptr noundef nonnull align 8 dereferenceable(37) %18)
  %20 = load ptr, ptr %6, align 8
  %21 = call noundef i32 @_ZNK14LayoutRawBlock4sizeEv(ptr noundef nonnull align 8 dereferenceable(37) %20)
  %22 = sub nsw i32 %19, %21
  call void @_ZN14LayoutRawBlock8set_sizeEi(ptr noundef nonnull align 8 dereferenceable(37) %17, i32 noundef %22)
  %23 = load ptr, ptr %6, align 8
  %24 = load ptr, ptr %5, align 8
  %25 = call noundef ptr @_ZNK14LayoutRawBlock10prev_blockEv(ptr noundef nonnull align 8 dereferenceable(37) %24)
  call void @_ZN14LayoutRawBlock14set_prev_blockEPS_(ptr noundef nonnull align 8 dereferenceable(37) %23, ptr noundef %25)
  %26 = load ptr, ptr %6, align 8
  %27 = load ptr, ptr %5, align 8
  call void @_ZN14LayoutRawBlock14set_next_blockEPS_(ptr noundef nonnull align 8 dereferenceable(37) %26, ptr noundef %27)
  %28 = load ptr, ptr %5, align 8
  %29 = load ptr, ptr %6, align 8
  call void @_ZN14LayoutRawBlock14set_prev_blockEPS_(ptr noundef nonnull align 8 dereferenceable(37) %28, ptr noundef %29)
  %30 = load ptr, ptr %6, align 8
  %31 = call noundef ptr @_ZNK14LayoutRawBlock10prev_blockEv(ptr noundef nonnull align 8 dereferenceable(37) %30)
  %32 = icmp ne ptr %31, null
  br i1 %32, label %33, label %37

33:                                               ; preds = %3
  %34 = load ptr, ptr %6, align 8
  %35 = call noundef ptr @_ZNK14LayoutRawBlock10prev_blockEv(ptr noundef nonnull align 8 dereferenceable(37) %34)
  %36 = load ptr, ptr %6, align 8
  call void @_ZN14LayoutRawBlock14set_next_blockEPS_(ptr noundef nonnull align 8 dereferenceable(37) %35, ptr noundef %36)
  br label %37

37:                                               ; preds = %33, %3
  %38 = getelementptr inbounds %class.FieldLayout, ptr %7, i32 0, i32 2
  %39 = load ptr, ptr %38, align 8
  %40 = load ptr, ptr %5, align 8
  %41 = icmp eq ptr %39, %40
  br i1 %41, label %42, label %45

42:                                               ; preds = %37
  %43 = load ptr, ptr %6, align 8
  %44 = getelementptr inbounds %class.FieldLayout, ptr %7, i32 0, i32 2
  store ptr %43, ptr %44, align 8
  br label %45

45:                                               ; preds = %42, %37
  %46 = load ptr, ptr %6, align 8
  ret ptr %46
}

; Function Attrs: mustprogress nounwind uwtable
define linkonce_odr hidden noundef i32 @_ZN15instanceOopDesc20base_offset_in_bytesEv() #1 comdat align 2 {
  %1 = load i8, ptr @UseCompressedClassPointers, align 1
  %2 = trunc i8 %1 to i1
  br i1 %2, label %3, label %6

3:                                                ; preds = %0
  %4 = call noundef i32 @_ZN7oopDesc25klass_gap_offset_in_bytesEv()
  %5 = sext i32 %4 to i64
  br label %7

6:                                                ; preds = %0
  br label %7

7:                                                ; preds = %6, %3
  %8 = phi i64 [ %5, %3 ], [ 16, %6 ]
  %9 = trunc i64 %8 to i32
  ret i32 %9
}

; Function Attrs: mustprogress nounwind uwtable
define linkonce_odr hidden noundef ptr @_ZN11FieldLayout17first_empty_blockEv(ptr noundef nonnull align 8 dereferenceable(40) %0) #1 comdat align 2 {
  %2 = alloca ptr, align 8
  %3 = alloca ptr, align 8
  store ptr %0, ptr %2, align 8
  %4 = load ptr, ptr %2, align 8
  %5 = getelementptr inbounds %class.FieldLayout, ptr %4, i32 0, i32 3
  %6 = load ptr, ptr %5, align 8
  store ptr %6, ptr %3, align 8
  br label %7

7:                                                ; preds = %11, %1
  %8 = load ptr, ptr %3, align 8
  %9 = call noundef i32 @_ZNK14LayoutRawBlock4kindEv(ptr noundef nonnull align 8 dereferenceable(37) %8)
  %10 = icmp ne i32 %9, 0
  br i1 %10, label %11, label %14

11:                                               ; preds = %7
  %12 = load ptr, ptr %3, align 8
  %13 = call noundef ptr @_ZNK14LayoutRawBlock10next_blockEv(ptr noundef nonnull align 8 dereferenceable(37) %12)
  store ptr %13, ptr %3, align 8
  br label %7, !llvm.loop !6

14:                                               ; preds = %7
  %15 = load ptr, ptr %3, align 8
  ret ptr %15
}

; Function Attrs: mustprogress nounwind uwtable
define linkonce_odr hidden void @_ZN14LayoutRawBlock10set_offsetEi(ptr noundef nonnull align 8 dereferenceable(37) %0, i32 noundef %1) #1 comdat align 2 {
  %3 = alloca ptr, align 8
  %4 = alloca i32, align 4
  store ptr %0, ptr %3, align 8
  store i32 %1, ptr %4, align 4
  %5 = load ptr, ptr %3, align 8
  %6 = load i32, ptr %4, align 4
  %7 = getelementptr inbounds %class.LayoutRawBlock, ptr %5, i32 0, i32 3
  store i32 %6, ptr %7, align 4
  ret void
}

; Function Attrs: mustprogress nounwind uwtable
define linkonce_odr hidden noundef ptr @_ZN11ResourceObjnwEm(i64 noundef %0) #1 comdat align 2 {
  %2 = alloca i64, align 8
  store i64 %0, ptr %2, align 8
  %3 = load i64, ptr %2, align 8
  %4 = call noundef ptr @_Z23resource_allocate_bytesmN17AllocFailStrategy13AllocFailEnumE(i64 noundef %3, i32 noundef 0)
  ret ptr %4
}

; Function Attrs: mustprogress nounwind uwtable
define hidden void @_ZN11FieldLayout26initialize_instance_layoutEPK13InstanceKlass(ptr noundef nonnull align 8 dereferenceable(40) %0, ptr noundef %1) #1 align 2 {
  %3 = alloca ptr, align 8
  %4 = alloca ptr, align 8
  %5 = alloca i8, align 1
  store ptr %0, ptr %3, align 8
  store ptr %1, ptr %4, align 8
  %6 = load ptr, ptr %3, align 8
  %7 = load ptr, ptr %4, align 8
  %8 = icmp eq ptr %7, null
  br i1 %8, label %9, label %24

9:                                                ; preds = %2
  %10 = call noundef ptr @_ZN11ResourceObjnwEm(i64 noundef 40)
  call void @_ZN14LayoutRawBlockC1ENS_4KindEi(ptr noundef nonnull align 8 dereferenceable(37) %10, i32 noundef 0, i32 noundef 2147483647)
  %11 = getelementptr inbounds %class.FieldLayout, ptr %6, i32 0, i32 2
  store ptr %10, ptr %11, align 8
  %12 = getelementptr inbounds %class.FieldLayout, ptr %6, i32 0, i32 2
  %13 = load ptr, ptr %12, align 8
  call void @_ZN14LayoutRawBlock10set_offsetEi(ptr noundef nonnull align 8 dereferenceable(37) %13, i32 noundef 0)
  %14 = getelementptr inbounds %class.FieldLayout, ptr %6, i32 0, i32 2
  %15 = load ptr, ptr %14, align 8
  %16 = getelementptr inbounds %class.FieldLayout, ptr %6, i32 0, i32 4
  store ptr %15, ptr %16, align 8
  %17 = getelementptr inbounds %class.FieldLayout, ptr %6, i32 0, i32 2
  %18 = load ptr, ptr %17, align 8
  %19 = getelementptr inbounds %class.FieldLayout, ptr %6, i32 0, i32 3
  store ptr %18, ptr %19, align 8
  %20 = call noundef ptr @_ZN11FieldLayout17first_empty_blockEv(ptr noundef nonnull align 8 dereferenceable(40) %6)
  %21 = call noundef ptr @_ZN11ResourceObjnwEm(i64 noundef 40)
  %22 = call noundef i32 @_ZN15instanceOopDesc20base_offset_in_bytesEv()
  call void @_ZN14LayoutRawBlockC1ENS_4KindEi(ptr noundef nonnull align 8 dereferenceable(37) %21, i32 noundef 1, i32 noundef %22)
  %23 = call noundef ptr @_ZN11FieldLayout6insertEP14LayoutRawBlockS1_(ptr noundef nonnull align 8 dereferenceable(40) %6, ptr noundef %20, ptr noundef %21)
  br label %43

24:                                               ; preds = %2
  %25 = load ptr, ptr %4, align 8
  %26 = call noundef zeroext i1 @_ZN11FieldLayout18reconstruct_layoutEPK13InstanceKlass(ptr noundef nonnull align 8 dereferenceable(40) %6, ptr noundef %25)
  %27 = zext i1 %26 to i8
  store i8 %27, ptr %5, align 1
  %28 = load ptr, ptr %4, align 8
  call void @_ZN11FieldLayout10fill_holesEPK13InstanceKlass(ptr noundef nonnull align 8 dereferenceable(40) %6, ptr noundef %28)
  %29 = load ptr, ptr %4, align 8
  %30 = call noundef zeroext i1 @_ZNK13InstanceKlass25has_contended_annotationsEv(ptr noundef nonnull align 8 dereferenceable(464) %29)
  br i1 %30, label %31, label %34

31:                                               ; preds = %24
  %32 = load i8, ptr %5, align 1
  %33 = trunc i8 %32 to i1
  br i1 %33, label %38, label %34

34:                                               ; preds = %31, %24
  %35 = getelementptr inbounds %class.FieldLayout, ptr %6, i32 0, i32 2
  %36 = load ptr, ptr %35, align 8
  %37 = getelementptr inbounds %class.FieldLayout, ptr %6, i32 0, i32 3
  store ptr %36, ptr %37, align 8
  br label %42

38:                                               ; preds = %31
  %39 = getelementptr inbounds %class.FieldLayout, ptr %6, i32 0, i32 4
  %40 = load ptr, ptr %39, align 8
  %41 = getelementptr inbounds %class.FieldLayout, ptr %6, i32 0, i32 3
  store ptr %40, ptr %41, align 8
  br label %42

42:                                               ; preds = %38, %34
  br label %43

43:                                               ; preds = %42, %9
  ret void
}