; Function Attrs: mustprogress nounwind uwtable
define hidden void @_ZN11FieldLayout26initialize_instance_layoutEPK13InstanceKlass(ptr nocapture noundef nonnull align 8 dereferenceable(40) %0, ptr noundef %1) local_unnamed_addr #2 align 2 {
  %3 = icmp eq ptr %1, null
  br i1 %3, label %4, label %43

4:                                                ; preds = %2
  %5 = tail call noundef ptr @_Z23resource_allocate_bytesmN17AllocFailStrategy13AllocFailEnumE(i64 noundef 40, i32 noundef 0) #13
  %6 = getelementptr inbounds i8, ptr %5, i64 20
  tail call void @llvm.memset.p0.i64(ptr noundef nonnull align 8 dereferenceable(20) %5, i8 0, i64 20, i1 false)
  %7 = getelementptr inbounds i8, ptr %5, i64 24
  store i32 1, ptr %7, align 8
  %8 = getelementptr inbounds i8, ptr %5, i64 28
  store i32 2147483647, ptr %8, align 4
  %9 = getelementptr inbounds i8, ptr %5, i64 32
  store i32 -1, ptr %9, align 8
  %10 = getelementptr inbounds i8, ptr %5, i64 36
  store i8 0, ptr %10, align 4
  %11 = getelementptr inbounds i8, ptr %0, i64 16
  store ptr %5, ptr %11, align 8
  store i32 0, ptr %6, align 4
  %12 = load ptr, ptr %11, align 8
  %13 = getelementptr inbounds i8, ptr %0, i64 32
  store ptr %12, ptr %13, align 8
  %14 = getelementptr inbounds i8, ptr %0, i64 24
  store ptr %12, ptr %14, align 8
  br label %15

15:                                               ; preds = %15, %4
  %.0.in.i = phi ptr [ %14, %4 ], [ %.0.i, %15 ]
  %.0.i = load ptr, ptr %.0.in.i, align 8
  %16 = getelementptr inbounds i8, ptr %.0.i, i64 16
  %17 = load i32, ptr %16, align 8
  %.not.i = icmp eq i32 %17, 0
  br i1 %.not.i, label %_ZN11FieldLayout17first_empty_blockEv.exit, label %15, !llvm.loop !6

_ZN11FieldLayout17first_empty_blockEv.exit:       ; preds = %15
  %18 = tail call noundef ptr @_Z23resource_allocate_bytesmN17AllocFailStrategy13AllocFailEnumE(i64 noundef 40, i32 noundef 0) #13
  %19 = load i8, ptr @UseCompressedClassPointers, align 1
  %20 = trunc i8 %19 to i1
  %spec.select.i = select i1 %20, i32 12, i32 16
  %21 = getelementptr inbounds i8, ptr %18, i64 16
  tail call void @llvm.memset.p0.i64(ptr noundef nonnull align 8 dereferenceable(16) %18, i8 0, i64 16, i1 false)
  store i32 1, ptr %21, align 8
  %22 = getelementptr inbounds i8, ptr %18, i64 20
  store i32 -1, ptr %22, align 4
  %23 = getelementptr inbounds i8, ptr %18, i64 24
  store i32 1, ptr %23, align 8
  %24 = getelementptr inbounds i8, ptr %18, i64 28
  store i32 %spec.select.i, ptr %24, align 4
  %25 = getelementptr inbounds i8, ptr %18, i64 32
  store i32 -1, ptr %25, align 8
  %26 = getelementptr inbounds i8, ptr %18, i64 36
  store i8 0, ptr %26, align 4
  %27 = getelementptr inbounds i8, ptr %.0.i, i64 20
  %28 = load i32, ptr %27, align 4
  store i32 %28, ptr %22, align 4
  %29 = add nsw i32 %28, %spec.select.i
  store i32 %29, ptr %27, align 4
  %30 = getelementptr inbounds i8, ptr %.0.i, i64 28
  %31 = load i32, ptr %30, align 4
  %32 = load i32, ptr %24, align 4
  %33 = sub nsw i32 %31, %32
  store i32 %33, ptr %30, align 4
  %34 = getelementptr inbounds i8, ptr %.0.i, i64 8
  %35 = load ptr, ptr %34, align 8
  %36 = getelementptr inbounds i8, ptr %18, i64 8
  store ptr %35, ptr %36, align 8
  store ptr %.0.i, ptr %18, align 8
  store ptr %18, ptr %34, align 8
  %37 = load ptr, ptr %36, align 8
  %.not.i6 = icmp eq ptr %37, null
  br i1 %.not.i6, label %39, label %38

38:                                               ; preds = %_ZN11FieldLayout17first_empty_blockEv.exit
  store ptr %18, ptr %37, align 8
  br label %39

39:                                               ; preds = %38, %_ZN11FieldLayout17first_empty_blockEv.exit
  %40 = load ptr, ptr %11, align 8
  %41 = icmp eq ptr %40, %.0.i
  br i1 %41, label %42, label %_ZN11FieldLayout6insertEP14LayoutRawBlockS1_.exit

42:                                               ; preds = %39
  store ptr %18, ptr %11, align 8
  br label %_ZN11FieldLayout6insertEP14LayoutRawBlockS1_.exit

43:                                               ; preds = %2
  %44 = tail call noundef zeroext i1 @_ZN11FieldLayout18reconstruct_layoutEPK13InstanceKlass(ptr noundef nonnull align 8 dereferenceable(40) %0, ptr noundef nonnull %1)
  tail call void @_ZN11FieldLayout10fill_holesEPK13InstanceKlass(ptr noundef nonnull align 8 dereferenceable(40) %0, ptr noundef nonnull %1)
  %45 = getelementptr inbounds i8, ptr %1, i64 308
  %46 = load i16, ptr %45, align 2
  %47 = and i16 %46, 1024
  %.not7 = icmp ne i16 %47, 0
  %brmerge.not = and i1 %44, %.not7
  %48 = getelementptr inbounds i8, ptr %0, i64 24
  br i1 %brmerge.not, label %52, label %49

49:                                               ; preds = %43
  %50 = getelementptr inbounds i8, ptr %0, i64 16
  %51 = load ptr, ptr %50, align 8
  store ptr %51, ptr %48, align 8
  br label %_ZN11FieldLayout6insertEP14LayoutRawBlockS1_.exit

52:                                               ; preds = %43
  %53 = getelementptr inbounds i8, ptr %0, i64 32
  %54 = load ptr, ptr %53, align 8
  store ptr %54, ptr %48, align 8
  br label %_ZN11FieldLayout6insertEP14LayoutRawBlockS1_.exit

_ZN11FieldLayout6insertEP14LayoutRawBlockS1_.exit: ; preds = %42, %39, %49, %52
  ret void
}